; Function Attrs: nounwind uwtable
define dso_local range(i32 -1, 1) i32 @reclaimFilePageCache(i32 noundef %0, i64 noundef %1, i64 noundef %2) local_unnamed_addr #4 {
  %4 = tail call i32 @posix_fadvise64(i32 noundef %0, i64 noundef %1, i64 noundef %2, i32 noundef 4) #29
  %.not = icmp eq i32 %4, 0
  br i1 %.not, label %7, label %5

5:                                                ; preds = %3
  %6 = tail call ptr @__errno_location() #30
  store i32 %4, ptr %6, align 4, !tbaa !5
  br label %7

7:                                                ; preds = %3, %5
  %.0 = phi i32 [ -1, %5 ], [ 0, %3 ]
  ret i32 %.0
}